target datalayout = "e-m:e-p270:32:32-p271:32:32-p272:64:64-i64:64-i128:128-f80:128-n8:16:32:64-S128"
target triple = "x86_64-pc-linux-gnu"

%struct.ReadDirCtx = type { ptr, ptr, %struct.stat, [261 x i8] }
%struct.stat = type { i64, i64, i64, i32, i32, i32, i32, i64, i64, i64, i64, %struct.timespec, %struct.timespec, %struct.timespec, [3 x i64] }
%struct.timespec = type { i64, i64 }

; Function Attrs: nounwind uwtable
define i32 @wc_FileExists(ptr noundef %0) #0 {
  %2 = alloca i32, align 4
  %3 = alloca ptr, align 8
  %4 = alloca %struct.ReadDirCtx, align 8
  %5 = alloca i32, align 4
  store ptr %0, ptr %3, align 8, !tbaa !7
  call void @llvm.lifetime.start.p0(i64 424, ptr %4) #7
  call void @llvm.memset.p0.i64(ptr align 8 %4, i8 0, i64 424, i1 false)
  %6 = load ptr, ptr %3, align 8, !tbaa !7
  %7 = icmp eq ptr %6, null
  br i1 %7, label %8, label %9

8:                                                ; preds = %1
  store i32 0, ptr %2, align 4
  store i32 1, ptr %5, align 4
  br label %27

9:                                                ; preds = %1
  %10 = load ptr, ptr %3, align 8, !tbaa !7
  %11 = getelementptr inbounds nuw %struct.ReadDirCtx, ptr %4, i32 0, i32 2
  %12 = call i32 @stat(ptr noundef %10, ptr noundef %11) #7
  %13 = icmp ne i32 %12, 0
  br i1 %13, label %14, label %18

14:                                               ; preds = %9
  br label %15

15:                                               ; preds = %14
  br label %16

16:                                               ; preds = %15
  br label %17

17:                                               ; preds = %16
  store i32 -244, ptr %2, align 4
  store i32 1, ptr %5, align 4
  br label %27

18:                                               ; preds = %9
  %19 = getelementptr inbounds nuw %struct.ReadDirCtx, ptr %4, i32 0, i32 2
  %20 = getelementptr inbounds nuw %struct.stat, ptr %19, i32 0, i32 3
  %21 = load i32, ptr %20, align 8, !tbaa !19
  %22 = and i32 %21, 61440
  %23 = icmp eq i32 %22, 32768
  br i1 %23, label %24, label %25

24:                                               ; preds = %18
  store i32 0, ptr %2, align 4
  store i32 1, ptr %5, align 4
  br label %27

25:                                               ; preds = %18
  br label %26

26:                                               ; preds = %25
  store i32 -1, ptr %2, align 4
  store i32 1, ptr %5, align 4
  br label %27

27:                                               ; preds = %26, %24, %17, %8
  call void @llvm.lifetime.end.p0(i64 424, ptr %4) #7
  %28 = load i32, ptr %2, align 4
  ret i32 %28
}