; Function Attrs: nofree nounwind uwtable
define range(i32 -244, 1) i32 @wc_FileExists(ptr noundef readonly captures(address_is_null) %0) local_unnamed_addr #5 {
  %2 = alloca %struct.ReadDirCtx, align 8
  call void @llvm.lifetime.start.p0(i64 424, ptr nonnull %2) #16
  call void @llvm.memset.p0.i64(ptr noundef nonnull align 8 dereferenceable(424) %2, i8 0, i64 424, i1 false)
  %3 = icmp eq ptr %0, null
  br i1 %3, label %12, label %4

4:                                                ; preds = %1
  %5 = getelementptr inbounds nuw i8, ptr %2, i64 16
  %6 = call i32 @stat(ptr noundef nonnull %0, ptr noundef nonnull %5) #16
  %.not = icmp eq i32 %6, 0
  br i1 %.not, label %7, label %12

7:                                                ; preds = %4
  %8 = getelementptr inbounds nuw i8, ptr %2, i64 40
  %9 = load i32, ptr %8, align 8, !tbaa !12
  %10 = and i32 %9, 61440
  %11 = icmp ne i32 %10, 32768
  %. = sext i1 %11 to i32
  br label %12

12:                                               ; preds = %7, %4, %1
  %.0 = phi i32 [ 0, %1 ], [ -244, %4 ], [ %., %7 ]
  call void @llvm.lifetime.end.p0(i64 424, ptr nonnull %2) #16
  ret i32 %.0
}